; Function Attrs: mustprogress uwtable
define internal void @_ZN2cv12cpu_baselineL8cvt8u16fEPKhmS2_mPhmNS_5Size_IiEEPv(ptr nocapture noundef readonly %0, i64 noundef %1, ptr nocapture readnone %2, i64 %3, ptr nocapture noundef writeonly %4, i64 noundef %5, i64 %6, ptr nocapture readnone %7) #0 personality ptr @__gxx_personality_v0 {
  %9 = alloca %"class.cv::utils::trace::details::Region", align 8
  call void @_ZN2cv5utils5trace7details6RegionC1ERKNS3_21LocationStaticStorageE(ptr noundef nonnull align 8 dereferenceable(12) %9, ptr noundef nonnull align 8 dereferenceable(32) @_ZZN2cv12cpu_baselineL8cvt8u16fEPKhmS2_mPhmNS_5Size_IiEEPvE25__cv_trace_location_fn191)
  %.sroa.2.0.extract.shift.i = lshr i64 %6, 32
  %.sroa.2.0.extract.trunc.i = trunc nuw i64 %.sroa.2.0.extract.shift.i to i32
  %10 = lshr i64 %5, 1
  %11 = icmp sgt i32 %.sroa.2.0.extract.trunc.i, 0
  %.sroa.013.0.extract.trunc.i = trunc i64 %6 to i32
  %12 = icmp sgt i32 %.sroa.013.0.extract.trunc.i, 0
  %or.cond.i = and i1 %12, %11
  br i1 %or.cond.i, label %.preheader.us.preheader.i, label %_ZN2cv12cpu_baselineL5cvt1_IhNS_6hfloatENS_12hal_baseline5v_regIfLi4EEEEEvPKT_mPT0_mNS_5Size_IiEE.exit

.preheader.us.preheader.i:                        ; preds = %8
  %wide.trip.count.i = and i64 %6, 2147483647
  br label %.preheader.us.i

.preheader.us.i:                                  ; preds = %._crit_edge.us.i, %.preheader.us.preheader.i
  %.020.us.i = phi ptr [ %38, %._crit_edge.us.i ], [ %0, %.preheader.us.preheader.i ]
  %.01519.us.i = phi i32 [ %37, %._crit_edge.us.i ], [ 0, %.preheader.us.preheader.i ]
  %.01618.us.i = phi ptr [ %39, %._crit_edge.us.i ], [ %4, %.preheader.us.preheader.i ]
  br label %13

13:                                               ; preds = %_ZN2cvL13saturate_castINS_6hfloatEEET_h.exit.us.i, %.preheader.us.i
  %indvars.iv.i = phi i64 [ 0, %.preheader.us.i ], [ %indvars.iv.next.i, %_ZN2cvL13saturate_castINS_6hfloatEEET_h.exit.us.i ]
  %14 = getelementptr inbounds i8, ptr %.020.us.i, i64 %indvars.iv.i
  %15 = load i8, ptr %14, align 1
  %16 = uitofp i8 %15 to float
  %17 = bitcast float %16 to i32
  %18 = icmp ugt i32 %17, 1199570943
  br i1 %18, label %32, label %19

19:                                               ; preds = %13
  %20 = icmp ult i32 %17, 947912704
  br i1 %20, label %28, label %21

21:                                               ; preds = %19
  %22 = add nuw nsw i32 %17, 134221823
  %23 = lshr i32 %17, 13
  %24 = and i32 %23, 1
  %25 = add nuw nsw i32 %22, %24
  %26 = lshr i32 %25, 13
  %27 = trunc i32 %26 to i16
  br label %_ZN2cvL13saturate_castINS_6hfloatEEET_h.exit.us.i

28:                                               ; preds = %19
  %29 = fadd float %16, 5.000000e-01
  %30 = bitcast float %29 to i32
  %31 = trunc i32 %30 to i16
  br label %_ZN2cvL13saturate_castINS_6hfloatEEET_h.exit.us.i

32:                                               ; preds = %13
  %33 = icmp ugt i32 %17, 2139095040
  %34 = select i1 %33, i16 32256, i16 31744
  br label %_ZN2cvL13saturate_castINS_6hfloatEEET_h.exit.us.i

_ZN2cvL13saturate_castINS_6hfloatEEET_h.exit.us.i: ; preds = %32, %28, %21
  %35 = phi i16 [ %31, %28 ], [ %27, %21 ], [ %34, %32 ]
  %36 = getelementptr inbounds %"class.cv::hfloat", ptr %.01618.us.i, i64 %indvars.iv.i
  store i16 %35, ptr %36, align 2
  %indvars.iv.next.i = add nuw nsw i64 %indvars.iv.i, 1
  %exitcond.not.i = icmp eq i64 %indvars.iv.next.i, %wide.trip.count.i
  br i1 %exitcond.not.i, label %._crit_edge.us.i, label %13, !llvm.loop !108

._crit_edge.us.i:                                 ; preds = %_ZN2cvL13saturate_castINS_6hfloatEEET_h.exit.us.i
  %37 = add nuw nsw i32 %.01519.us.i, 1
  %38 = getelementptr inbounds i8, ptr %.020.us.i, i64 %1
  %39 = getelementptr inbounds %"class.cv::hfloat", ptr %.01618.us.i, i64 %10
  %exitcond24.not.i = icmp eq i32 %37, %.sroa.2.0.extract.trunc.i
  br i1 %exitcond24.not.i, label %_ZN2cv12cpu_baselineL5cvt1_IhNS_6hfloatENS_12hal_baseline5v_regIfLi4EEEEEvPKT_mPT0_mNS_5Size_IiEE.exit, label %.preheader.us.i, !llvm.loop !109

_ZN2cv12cpu_baselineL5cvt1_IhNS_6hfloatENS_12hal_baseline5v_regIfLi4EEEEEvPKT_mPT0_mNS_5Size_IiEE.exit: ; preds = %._crit_edge.us.i, %8
  %40 = getelementptr inbounds i8, ptr %9, i64 8
  %41 = load i32, ptr %40, align 8
  %.not.i = icmp eq i32 %41, 0
  br i1 %.not.i, label %_ZN2cv5utils5trace7details6RegionD2Ev.exit, label %42

42:                                               ; preds = %_ZN2cv12cpu_baselineL5cvt1_IhNS_6hfloatENS_12hal_baseline5v_regIfLi4EEEEEvPKT_mPT0_mNS_5Size_IiEE.exit
  invoke void @_ZN2cv5utils5trace7details6Region7destroyEv(ptr noundef nonnull align 8 dereferenceable(12) %9)
          to label %_ZN2cv5utils5trace7details6RegionD2Ev.exit unwind label %43

43:                                               ; preds = %42
  %44 = landingpad { ptr, i32 }
          catch ptr null
  %45 = extractvalue { ptr, i32 } %44, 0
  call void @__clang_call_terminate(ptr %45) #14
  unreachable

_ZN2cv5utils5trace7details6RegionD2Ev.exit:       ; preds = %_ZN2cv12cpu_baselineL5cvt1_IhNS_6hfloatENS_12hal_baseline5v_regIfLi4EEEEEvPKT_mPT0_mNS_5Size_IiEE.exit, %42
  ret void
}